	.file	"math.c"
	.text
	.globl	add
	.def	add;	.scl	2;	.type	32;	.endef
	.seh_proc	add
add:
	pushq	%rbp
	.seh_pushreg	%rbp
	movq	%rsp, %rbp
	.seh_setframe	%rbp, 0
	.seh_endprologue
	movsd	%xmm0, 16(%rbp)
	movsd	%xmm1, 24(%rbp)
	movsd	16(%rbp), %xmm0
	addsd	24(%rbp), %xmm0
	movq	%xmm0, %rax
	movq	%rax, %xmm0
	popq	%rbp
	ret
	.seh_endproc
	.globl	sub
	.def	sub;	.scl	2;	.type	32;	.endef
	.seh_proc	sub
sub:
	pushq	%rbp
	.seh_pushreg	%rbp
	movq	%rsp, %rbp
	.seh_setframe	%rbp, 0
	.seh_endprologue
	movsd	%xmm0, 16(%rbp)
	movsd	%xmm1, 24(%rbp)
	movsd	16(%rbp), %xmm0
	subsd	24(%rbp), %xmm0
	movq	%xmm0, %rax
	movq	%rax, %xmm0
	popq	%rbp
	ret
	.seh_endproc
	.globl	mult
	.def	mult;	.scl	2;	.type	32;	.endef
	.seh_proc	mult
mult:
	pushq	%rbp
	.seh_pushreg	%rbp
	movq	%rsp, %rbp
	.seh_setframe	%rbp, 0
	.seh_endprologue
	movsd	%xmm0, 16(%rbp)
	movsd	%xmm1, 24(%rbp)
	movsd	16(%rbp), %xmm0
	mulsd	24(%rbp), %xmm0
	movq	%xmm0, %rax
	movq	%rax, %xmm0
	popq	%rbp
	ret
	.seh_endproc
	.section .rdata,"dr"
.LC2:
	.ascii "divisor can't to be zero\0"
	.text
	.globl	divi
	.def	divi;	.scl	2;	.type	32;	.endef
	.seh_proc	divi
divi:
	pushq	%rbp
	.seh_pushreg	%rbp
	movq	%rsp, %rbp
	.seh_setframe	%rbp, 0
	subq	$32, %rsp
	.seh_stackalloc	32
	.seh_endprologue
	movsd	%xmm0, 16(%rbp)
	movsd	%xmm1, 24(%rbp)
	movsd	24(%rbp), %xmm0
	comisd	.LC0(%rip), %xmm0
	jb	.L8
	movsd	.LC1(%rip), %xmm0
	comisd	24(%rbp), %xmm0
	jb	.L8
	leaq	.LC2(%rip), %rcx
	call	puts
	movsd	.LC0(%rip), %xmm0
	jmp	.L11
.L8:
	movsd	16(%rbp), %xmm0
	divsd	24(%rbp), %xmm0
.L11:
	movq	%xmm0, %rax
	movq	%rax, %xmm0
	addq	$32, %rsp
	popq	%rbp
	ret
	.seh_endproc
	.section .rdata,"dr"
	.align 8
.LC0:
	.long	-1598689907
	.long	-1095710985
	.align 8
.LC1:
	.long	-1598689907
	.long	1051772663
	.ident	"GCC: (x86_64-posix-seh-rev0, Built by MinGW-W64 project) 8.1.0"
	.def	puts;	.scl	2;	.type	32;	.endef
